target datalayout = "e-m:e-p270:32:32-p271:32:32-p272:64:64-i64:64-i128:128-f80:128-n8:16:32:64-S128"
target triple = "x86_64-pc-linux-gnu"

%struct.DSA_PKEY_CTX = type { i32, i32, ptr, [2 x i32], ptr }
%struct.evp_pkey_ctx_st = type { i32, ptr, ptr, ptr, ptr, %union.anon, %struct.anon.4, ptr, ptr, ptr, i32, i32, ptr, ptr, ptr, ptr, ptr, i8, ptr }
%union.anon = type { %struct.anon.0 }
%struct.anon.0 = type { ptr, ptr }
%struct.anon.4 = type { ptr, ptr, i64, i8 }

@.str = private unnamed_addr constant [34 x i8] c"../openssl/crypto/dsa/dsa_pmeth.c\00", align 1
@__func__.pkey_dsa_ctrl = private unnamed_addr constant [14 x i8] c"pkey_dsa_ctrl\00", align 1

; Function Attrs: nounwind uwtable
define internal i32 @pkey_dsa_ctrl(ptr noundef %0, i32 noundef %1, i32 noundef %2, ptr noundef %3) #0 {
  %5 = alloca i32, align 4
  %6 = alloca ptr, align 8
  %7 = alloca i32, align 4
  %8 = alloca i32, align 4
  %9 = alloca ptr, align 8
  %10 = alloca ptr, align 8
  %11 = alloca i32, align 4
  store ptr %0, ptr %6, align 8, !tbaa !3
  store i32 %1, ptr %7, align 4, !tbaa !36
  store i32 %2, ptr %8, align 4, !tbaa !36
  store ptr %3, ptr %9, align 8, !tbaa !8
  call void @llvm.lifetime.start.p0(i64 8, ptr %10) #6
  %12 = load ptr, ptr %6, align 8, !tbaa !3
  %13 = getelementptr inbounds nuw %struct.evp_pkey_ctx_st, ptr %12, i32 0, i32 16
  %14 = load ptr, ptr %13, align 8, !tbaa !16
  store ptr %14, ptr %10, align 8, !tbaa !8
  %15 = load i32, ptr %7, align 4, !tbaa !36
  switch i32 %15, label %114 [
    i32 4097, label %16
    i32 4098, label %24
    i32 4099, label %41
    i32 1, label %58
    i32 13, label %107
    i32 7, label %112
    i32 5, label %112
    i32 11, label %112
    i32 2, label %113
  ]

16:                                               ; preds = %4
  %17 = load i32, ptr %8, align 4, !tbaa !36
  %18 = icmp slt i32 %17, 256
  br i1 %18, label %19, label %20

19:                                               ; preds = %16
  store i32 -2, ptr %5, align 4
  store i32 1, ptr %11, align 4
  br label %115

20:                                               ; preds = %16
  %21 = load i32, ptr %8, align 4, !tbaa !36
  %22 = load ptr, ptr %10, align 8, !tbaa !8
  %23 = getelementptr inbounds nuw %struct.DSA_PKEY_CTX, ptr %22, i32 0, i32 0
  store i32 %21, ptr %23, align 8, !tbaa !9
  store i32 1, ptr %5, align 4
  store i32 1, ptr %11, align 4
  br label %115

24:                                               ; preds = %4
  %25 = load i32, ptr %8, align 4, !tbaa !36
  %26 = icmp ne i32 %25, 160
  br i1 %26, label %27, label %37

27:                                               ; preds = %24
  %28 = load i32, ptr %8, align 4, !tbaa !36
  %29 = icmp ne i32 %28, 224
  br i1 %29, label %30, label %37

30:                                               ; preds = %27
  %31 = load i32, ptr %8, align 4, !tbaa !36
  %32 = icmp ne i32 %31, 0
  br i1 %32, label %33, label %37

33:                                               ; preds = %30
  %34 = load i32, ptr %8, align 4, !tbaa !36
  %35 = icmp ne i32 %34, 256
  br i1 %35, label %36, label %37

36:                                               ; preds = %33
  store i32 -2, ptr %5, align 4
  store i32 1, ptr %11, align 4
  br label %115

37:                                               ; preds = %33, %30, %27, %24
  %38 = load i32, ptr %8, align 4, !tbaa !36
  %39 = load ptr, ptr %10, align 8, !tbaa !8
  %40 = getelementptr inbounds nuw %struct.DSA_PKEY_CTX, ptr %39, i32 0, i32 1
  store i32 %38, ptr %40, align 4, !tbaa !13
  store i32 1, ptr %5, align 4
  store i32 1, ptr %11, align 4
  br label %115

41:                                               ; preds = %4
  %42 = load ptr, ptr %9, align 8, !tbaa !8
  %43 = call i32 @EVP_MD_get_type(ptr noundef %42)
  %44 = icmp ne i32 %43, 64
  br i1 %44, label %45, label %54

45:                                               ; preds = %41
  %46 = load ptr, ptr %9, align 8, !tbaa !8
  %47 = call i32 @EVP_MD_get_type(ptr noundef %46)
  %48 = icmp ne i32 %47, 675
  br i1 %48, label %49, label %54

49:                                               ; preds = %45
  %50 = load ptr, ptr %9, align 8, !tbaa !8
  %51 = call i32 @EVP_MD_get_type(ptr noundef %50)
  %52 = icmp ne i32 %51, 672
  br i1 %52, label %53, label %54

53:                                               ; preds = %49
  call void @ERR_new()
  call void @ERR_set_debug(ptr noundef @.str, i32 noundef 154, ptr noundef @__func__.pkey_dsa_ctrl)
  call void (i32, i32, ptr, ...) @ERR_set_error(i32 noundef 10, i32 noundef 106, ptr noundef null)
  store i32 0, ptr %5, align 4
  store i32 1, ptr %11, align 4
  br label %115

54:                                               ; preds = %49, %45, %41
  %55 = load ptr, ptr %9, align 8, !tbaa !8
  %56 = load ptr, ptr %10, align 8, !tbaa !8
  %57 = getelementptr inbounds nuw %struct.DSA_PKEY_CTX, ptr %56, i32 0, i32 2
  store ptr %55, ptr %57, align 8, !tbaa !14
  store i32 1, ptr %5, align 4
  store i32 1, ptr %11, align 4
  br label %115

58:                                               ; preds = %4
  %59 = load ptr, ptr %9, align 8, !tbaa !8
  %60 = call i32 @EVP_MD_get_type(ptr noundef %59)
  %61 = icmp ne i32 %60, 64
  br i1 %61, label %62, label %103

62:                                               ; preds = %58
  %63 = load ptr, ptr %9, align 8, !tbaa !8
  %64 = call i32 @EVP_MD_get_type(ptr noundef %63)
  %65 = icmp ne i32 %64, 116
  br i1 %65, label %66, label %103

66:                                               ; preds = %62
  %67 = load ptr, ptr %9, align 8, !tbaa !8
  %68 = call i32 @EVP_MD_get_type(ptr noundef %67)
  %69 = icmp ne i32 %68, 66
  br i1 %69, label %70, label %103

70:                                               ; preds = %66
  %71 = load ptr, ptr %9, align 8, !tbaa !8
  %72 = call i32 @EVP_MD_get_type(ptr noundef %71)
  %73 = icmp ne i32 %72, 675
  br i1 %73, label %74, label %103

74:                                               ; preds = %70
  %75 = load ptr, ptr %9, align 8, !tbaa !8
  %76 = call i32 @EVP_MD_get_type(ptr noundef %75)
  %77 = icmp ne i32 %76, 672
  br i1 %77, label %78, label %103

78:                                               ; preds = %74
  %79 = load ptr, ptr %9, align 8, !tbaa !8
  %80 = call i32 @EVP_MD_get_type(ptr noundef %79)
  %81 = icmp ne i32 %80, 673
  br i1 %81, label %82, label %103

82:                                               ; preds = %78
  %83 = load ptr, ptr %9, align 8, !tbaa !8
  %84 = call i32 @EVP_MD_get_type(ptr noundef %83)
  %85 = icmp ne i32 %84, 674
  br i1 %85, label %86, label %103

86:                                               ; preds = %82
  %87 = load ptr, ptr %9, align 8, !tbaa !8
  %88 = call i32 @EVP_MD_get_type(ptr noundef %87)
  %89 = icmp ne i32 %88, 1096
  br i1 %89, label %90, label %103

90:                                               ; preds = %86
  %91 = load ptr, ptr %9, align 8, !tbaa !8
  %92 = call i32 @EVP_MD_get_type(ptr noundef %91)
  %93 = icmp ne i32 %92, 1097
  br i1 %93, label %94, label %103

94:                                               ; preds = %90
  %95 = load ptr, ptr %9, align 8, !tbaa !8
  %96 = call i32 @EVP_MD_get_type(ptr noundef %95)
  %97 = icmp ne i32 %96, 1098
  br i1 %97, label %98, label %103

98:                                               ; preds = %94
  %99 = load ptr, ptr %9, align 8, !tbaa !8
  %100 = call i32 @EVP_MD_get_type(ptr noundef %99)
  %101 = icmp ne i32 %100, 1099
  br i1 %101, label %102, label %103

102:                                              ; preds = %98
  call void @ERR_new()
  call void @ERR_set_debug(ptr noundef @.str, i32 noundef 172, ptr noundef @__func__.pkey_dsa_ctrl)
  call void (i32, i32, ptr, ...) @ERR_set_error(i32 noundef 10, i32 noundef 106, ptr noundef null)
  store i32 0, ptr %5, align 4
  store i32 1, ptr %11, align 4
  br label %115

103:                                              ; preds = %98, %94, %90, %86, %82, %78, %74, %70, %66, %62, %58
  %104 = load ptr, ptr %9, align 8, !tbaa !8
  %105 = load ptr, ptr %10, align 8, !tbaa !8
  %106 = getelementptr inbounds nuw %struct.DSA_PKEY_CTX, ptr %105, i32 0, i32 4
  store ptr %104, ptr %106, align 8, !tbaa !15
  store i32 1, ptr %5, align 4
  store i32 1, ptr %11, align 4
  br label %115

107:                                              ; preds = %4
  %108 = load ptr, ptr %10, align 8, !tbaa !8
  %109 = getelementptr inbounds nuw %struct.DSA_PKEY_CTX, ptr %108, i32 0, i32 4
  %110 = load ptr, ptr %109, align 8, !tbaa !15
  %111 = load ptr, ptr %9, align 8, !tbaa !8
  store ptr %110, ptr %111, align 8, !tbaa !42
  store i32 1, ptr %5, align 4
  store i32 1, ptr %11, align 4
  br label %115

112:                                              ; preds = %4, %4, %4
  store i32 1, ptr %5, align 4
  store i32 1, ptr %11, align 4
  br label %115

113:                                              ; preds = %4
  call void @ERR_new()
  call void @ERR_set_debug(ptr noundef @.str, i32 noundef 188, ptr noundef @__func__.pkey_dsa_ctrl)
  call void (i32, i32, ptr, ...) @ERR_set_error(i32 noundef 10, i32 noundef 150, ptr noundef null)
  store i32 -2, ptr %5, align 4
  store i32 1, ptr %11, align 4
  br label %115

114:                                              ; preds = %4
  store i32 -2, ptr %5, align 4
  store i32 1, ptr %11, align 4
  br label %115

115:                                              ; preds = %114, %113, %112, %107, %103, %102, %54, %53, %37, %36, %20, %19
  call void @llvm.lifetime.end.p0(i64 8, ptr %10) #6
  %116 = load i32, ptr %5, align 4
  ret i32 %116
}