; Function Attrs: nounwind uwtable
define internal range(i32 -2, 2) i32 @pkey_dsa_ctrl(ptr noundef readonly captures(none) %0, i32 noundef %1, i32 noundef %2, ptr noundef %3) #1 {
  %5 = getelementptr inbounds nuw i8, ptr %0, i64 152
  %6 = load ptr, ptr %5, align 8, !tbaa !13
  switch i32 %1, label %52 [
    i32 4097, label %7
    i32 4098, label %10
    i32 4099, label %14
    i32 1, label %23
    i32 13, label %48
    i32 7, label %53
    i32 5, label %53
    i32 11, label %53
    i32 2, label %51
  ]

7:                                                ; preds = %4
  %8 = icmp slt i32 %2, 256
  br i1 %8, label %53, label %9

9:                                                ; preds = %7
  store i32 %2, ptr %6, align 8, !tbaa !3
  br label %53

10:                                               ; preds = %4
  %11 = tail call i32 @llvm.fshl.i32(i32 %2, i32 %2, i32 27)
  switch i32 %11, label %53 [
    i32 8, label %12
    i32 7, label %12
    i32 5, label %12
    i32 0, label %12
  ]

12:                                               ; preds = %10, %10, %10, %10
  %13 = getelementptr inbounds nuw i8, ptr %6, i64 4
  store i32 %2, ptr %13, align 4, !tbaa !10
  br label %53

14:                                               ; preds = %4
  %15 = tail call i32 @EVP_MD_get_type(ptr noundef %3) #7
  %.not47 = icmp eq i32 %15, 64
  br i1 %.not47, label %21, label %16

16:                                               ; preds = %14
  %17 = tail call i32 @EVP_MD_get_type(ptr noundef %3) #7
  %.not48 = icmp eq i32 %17, 675
  br i1 %.not48, label %21, label %18

18:                                               ; preds = %16
  %19 = tail call i32 @EVP_MD_get_type(ptr noundef %3) #7
  %.not49 = icmp eq i32 %19, 672
  br i1 %.not49, label %21, label %20

20:                                               ; preds = %18
  tail call void @ERR_new() #7
  tail call void @ERR_set_debug(ptr noundef nonnull @.str, i32 noundef 154, ptr noundef nonnull @__func__.pkey_dsa_ctrl) #7
  tail call void (i32, i32, ptr, ...) @ERR_set_error(i32 noundef 10, i32 noundef 106, ptr noundef null) #7
  br label %53

21:                                               ; preds = %18, %16, %14
  %22 = getelementptr inbounds nuw i8, ptr %6, i64 8
  store ptr %3, ptr %22, align 8, !tbaa !11
  br label %53

23:                                               ; preds = %4
  %24 = tail call i32 @EVP_MD_get_type(ptr noundef %3) #7
  %.not = icmp eq i32 %24, 64
  br i1 %.not, label %46, label %25

25:                                               ; preds = %23
  %26 = tail call i32 @EVP_MD_get_type(ptr noundef %3) #7
  %.not37 = icmp eq i32 %26, 116
  br i1 %.not37, label %46, label %27

27:                                               ; preds = %25
  %28 = tail call i32 @EVP_MD_get_type(ptr noundef %3) #7
  %.not38 = icmp eq i32 %28, 66
  br i1 %.not38, label %46, label %29

29:                                               ; preds = %27
  %30 = tail call i32 @EVP_MD_get_type(ptr noundef %3) #7
  %.not39 = icmp eq i32 %30, 675
  br i1 %.not39, label %46, label %31

31:                                               ; preds = %29
  %32 = tail call i32 @EVP_MD_get_type(ptr noundef %3) #7
  %.not40 = icmp eq i32 %32, 672
  br i1 %.not40, label %46, label %33

33:                                               ; preds = %31
  %34 = tail call i32 @EVP_MD_get_type(ptr noundef %3) #7
  %.not41 = icmp eq i32 %34, 673
  br i1 %.not41, label %46, label %35

35:                                               ; preds = %33
  %36 = tail call i32 @EVP_MD_get_type(ptr noundef %3) #7
  %.not42 = icmp eq i32 %36, 674
  br i1 %.not42, label %46, label %37

37:                                               ; preds = %35
  %38 = tail call i32 @EVP_MD_get_type(ptr noundef %3) #7
  %.not43 = icmp eq i32 %38, 1096
  br i1 %.not43, label %46, label %39

39:                                               ; preds = %37
  %40 = tail call i32 @EVP_MD_get_type(ptr noundef %3) #7
  %.not44 = icmp eq i32 %40, 1097
  br i1 %.not44, label %46, label %41

41:                                               ; preds = %39
  %42 = tail call i32 @EVP_MD_get_type(ptr noundef %3) #7
  %.not45 = icmp eq i32 %42, 1098
  br i1 %.not45, label %46, label %43

43:                                               ; preds = %41
  %44 = tail call i32 @EVP_MD_get_type(ptr noundef %3) #7
  %.not46 = icmp eq i32 %44, 1099
  br i1 %.not46, label %46, label %45

45:                                               ; preds = %43
  tail call void @ERR_new() #7
  tail call void @ERR_set_debug(ptr noundef nonnull @.str, i32 noundef 172, ptr noundef nonnull @__func__.pkey_dsa_ctrl) #7
  tail call void (i32, i32, ptr, ...) @ERR_set_error(i32 noundef 10, i32 noundef 106, ptr noundef null) #7
  br label %53

46:                                               ; preds = %43, %41, %39, %37, %35, %33, %31, %29, %27, %25, %23
  %47 = getelementptr inbounds nuw i8, ptr %6, i64 24
  store ptr %3, ptr %47, align 8, !tbaa !12
  br label %53

48:                                               ; preds = %4
  %49 = getelementptr inbounds nuw i8, ptr %6, i64 24
  %50 = load ptr, ptr %49, align 8, !tbaa !12
  store ptr %50, ptr %3, align 8, !tbaa !31
  br label %53

51:                                               ; preds = %4
  tail call void @ERR_new() #7
  tail call void @ERR_set_debug(ptr noundef nonnull @.str, i32 noundef 188, ptr noundef nonnull @__func__.pkey_dsa_ctrl) #7
  tail call void (i32, i32, ptr, ...) @ERR_set_error(i32 noundef 10, i32 noundef 150, ptr noundef null) #7
  br label %53

52:                                               ; preds = %4
  br label %53

53:                                               ; preds = %4, %4, %4, %10, %7, %52, %51, %48, %46, %45, %21, %20, %12, %9
  %.0 = phi i32 [ -2, %52 ], [ -2, %51 ], [ 1, %48 ], [ 0, %45 ], [ 1, %46 ], [ 0, %20 ], [ 1, %21 ], [ 1, %12 ], [ 1, %9 ], [ -2, %7 ], [ -2, %10 ], [ 1, %4 ], [ 1, %4 ], [ 1, %4 ]
  ret i32 %.0
}